target datalayout = "e-m:e-p270:32:32-p271:32:32-p272:64:64-i64:64-i128:128-f80:128-n8:16:32:64-S128"
target triple = "x86_64-pc-linux-gnu"

%struct.RString = type { %struct.RBasic, i64, %union.anon }
%struct.RBasic = type { i64, i64 }
%union.anon = type { %struct.anon }
%struct.anon = type { ptr, %union.anon.0 }
%union.anon.0 = type { i64 }
%struct.anon.1 = type { [1 x i8] }

; Function Attrs: inlinehint nounwind sspstrong willreturn memory(read) uwtable
define internal i64 @RB_FL_TEST_RAW(i64 noundef %0, i64 noundef %1) #2 {
  %3 = alloca i64, align 8
  %4 = alloca i64, align 8
  store i64 %0, ptr %3, align 8, !tbaa !6
  store i64 %1, ptr %4, align 8, !tbaa !6
  %5 = load i64, ptr %3, align 8, !tbaa !6
  %6 = inttoptr i64 %5 to ptr
  %7 = getelementptr inbounds nuw %struct.RBasic, ptr %6, i32 0, i32 0
  %8 = load i64, ptr %7, align 8, !tbaa !38
  %9 = load i64, ptr %4, align 8, !tbaa !6
  %10 = and i64 %8, %9
  ret i64 %10
}

; Function Attrs: inlinehint nounwind sspstrong willreturn memory(read) uwtable
define internal zeroext i1 @RB_FL_ANY_RAW(i64 noundef %0, i64 noundef %1) #2 {
  %3 = alloca i64, align 8
  %4 = alloca i64, align 8
  store i64 %0, ptr %3, align 8, !tbaa !6
  store i64 %1, ptr %4, align 8, !tbaa !6
  %5 = load i64, ptr %3, align 8, !tbaa !6
  %6 = load i64, ptr %4, align 8, !tbaa !6
  %7 = call i64 @RB_FL_TEST_RAW(i64 noundef %5, i64 noundef %6) #22
  %8 = icmp ne i64 %7, 0
  ret i1 %8
}

; Function Attrs: inlinehint nounwind sspstrong willreturn memory(read, argmem: readwrite) uwtable
define internal void @rbimpl_rstring_getmem(ptr dead_on_unwind noalias writable sret(%struct.RString) align 8 %0, i64 noundef %1) #8 {
  %3 = alloca i64, align 8
  store i64 %1, ptr %3, align 8, !tbaa !6
  %4 = load i64, ptr %3, align 8, !tbaa !6
  %5 = call zeroext i1 @RB_FL_ANY_RAW(i64 noundef %4, i64 noundef 8192) #22
  br i1 %5, label %6, label %9

6:                                                ; preds = %2
  %7 = load i64, ptr %3, align 8, !tbaa !6
  %8 = inttoptr i64 %7 to ptr
  call void @llvm.memcpy.p0.p0.i64(ptr align 8 %0, ptr align 8 %8, i64 40, i1 false), !tbaa.struct !37
  br label %20

9:                                                ; preds = %2
  %10 = load i64, ptr %3, align 8, !tbaa !6
  %11 = call i64 @RSTRING_LEN(i64 noundef %10) #22
  %12 = getelementptr inbounds nuw %struct.RString, ptr %0, i32 0, i32 1
  store i64 %11, ptr %12, align 8, !tbaa !23
  %13 = load i64, ptr %3, align 8, !tbaa !6
  %14 = inttoptr i64 %13 to ptr
  %15 = getelementptr inbounds nuw %struct.RString, ptr %14, i32 0, i32 2
  %16 = getelementptr inbounds nuw %struct.anon.1, ptr %15, i32 0, i32 0
  %17 = getelementptr inbounds [1 x i8], ptr %16, i64 0, i64 0
  %18 = getelementptr inbounds nuw %struct.RString, ptr %0, i32 0, i32 2
  %19 = getelementptr inbounds nuw %struct.anon, ptr %18, i32 0, i32 0
  store ptr %17, ptr %19, align 8, !tbaa !19
  br label %20

20:                                               ; preds = %9, %6
  ret void
}

; Function Attrs: inlinehint nounwind sspstrong uwtable
define internal ptr @RSTRING_PTR(i64 noundef %0) #3 {
  %2 = alloca i64, align 8
  %3 = alloca ptr, align 8
  %4 = alloca %struct.RString, align 8
  store i64 %0, ptr %2, align 8, !tbaa !6
  call void @llvm.lifetime.start.p0(i64 8, ptr %3) #21
  %5 = load i64, ptr %2, align 8, !tbaa !6
  call void @rbimpl_rstring_getmem(ptr dead_on_unwind writable sret(%struct.RString) align 8 %4, i64 noundef %5) #24
  %6 = getelementptr inbounds nuw %struct.RString, ptr %4, i32 0, i32 2
  %7 = getelementptr inbounds nuw %struct.anon, ptr %6, i32 0, i32 0
  %8 = load ptr, ptr %7, align 8, !tbaa !19
  store ptr %8, ptr %3, align 8, !tbaa !10
  %9 = load ptr, ptr %3, align 8, !tbaa !10
  call void @llvm.lifetime.end.p0(i64 8, ptr %3) #21
  ret ptr %9
}

; Function Attrs: inlinehint nounwind sspstrong willreturn memory(read) uwtable
define internal i64 @RSTRING_LEN(i64 noundef %0) #2 {
  %2 = alloca i64, align 8
  store i64 %0, ptr %2, align 8, !tbaa !6
  %3 = load i64, ptr %2, align 8, !tbaa !6
  %4 = inttoptr i64 %3 to ptr
  %5 = getelementptr inbounds nuw %struct.RString, ptr %4, i32 0, i32 1
  %6 = load i64, ptr %5, align 8, !tbaa !23
  ret i64 %6
}

; Function Attrs: nounwind sspstrong uwtable
define internal i32 @check_class(i64 noundef %0) #0 {
  %2 = alloca i64, align 8
  %3 = alloca i32, align 4
  %4 = alloca i64, align 8
  store i64 %0, ptr %2, align 8, !tbaa !6
  call void @llvm.lifetime.start.p0(i64 4, ptr %3) #21
  call void @llvm.lifetime.start.p0(i64 8, ptr %4) #21
  store i32 0, ptr %3, align 4, !tbaa !13
  store i64 0, ptr %4, align 8, !tbaa !6
  br label %5

5:                                                ; preds = %80, %1
  %6 = load i64, ptr %4, align 8, !tbaa !6
  %7 = load i64, ptr %2, align 8, !tbaa !6
  %8 = call i64 @RSTRING_LEN(i64 noundef %7) #22
  %9 = icmp slt i64 %6, %8
  br i1 %9, label %10, label %83

10:                                               ; preds = %5
  %11 = call ptr @__ctype_b_loc() #23
  %12 = load ptr, ptr %11, align 8, !tbaa !26
  %13 = load i64, ptr %2, align 8, !tbaa !6
  %14 = call ptr @RSTRING_PTR(i64 noundef %13)
  %15 = load i64, ptr %4, align 8, !tbaa !6
  %16 = getelementptr inbounds i8, ptr %14, i64 %15
  %17 = load i8, ptr %16, align 1, !tbaa !19
  %18 = zext i8 %17 to i32
  %19 = sext i32 %18 to i64
  %20 = getelementptr inbounds i16, ptr %12, i64 %19
  %21 = load i16, ptr %20, align 2, !tbaa !28
  %22 = zext i16 %21 to i32
  %23 = and i32 %22, 1024
  %24 = icmp ne i32 %23, 0
  br i1 %24, label %25, label %28

25:                                               ; preds = %10
  %26 = load i32, ptr %3, align 4, !tbaa !13
  %27 = or i32 %26, 1
  store i32 %27, ptr %3, align 4, !tbaa !13
  br label %28

28:                                               ; preds = %25, %10
  %29 = call ptr @__ctype_b_loc() #23
  %30 = load ptr, ptr %29, align 8, !tbaa !26
  %31 = load i64, ptr %2, align 8, !tbaa !6
  %32 = call ptr @RSTRING_PTR(i64 noundef %31)
  %33 = load i64, ptr %4, align 8, !tbaa !6
  %34 = getelementptr inbounds i8, ptr %32, i64 %33
  %35 = load i8, ptr %34, align 1, !tbaa !19
  %36 = zext i8 %35 to i32
  %37 = sext i32 %36 to i64
  %38 = getelementptr inbounds i16, ptr %30, i64 %37
  %39 = load i16, ptr %38, align 2, !tbaa !28
  %40 = zext i16 %39 to i32
  %41 = and i32 %40, 2048
  %42 = icmp ne i32 %41, 0
  br i1 %42, label %43, label %46

43:                                               ; preds = %28
  %44 = load i32, ptr %3, align 4, !tbaa !13
  %45 = or i32 %44, 2
  store i32 %45, ptr %3, align 4, !tbaa !13
  br label %46

46:                                               ; preds = %43, %28
  %47 = load i64, ptr %2, align 8, !tbaa !6
  %48 = call ptr @RSTRING_PTR(i64 noundef %47)
  %49 = load i64, ptr %4, align 8, !tbaa !6
  %50 = getelementptr inbounds i8, ptr %48, i64 %49
  %51 = load i8, ptr %50, align 1, !tbaa !19
  %52 = sext i8 %51 to i32
  %53 = icmp eq i32 %52, 45
  br i1 %53, label %54, label %57

54:                                               ; preds = %46
  %55 = load i32, ptr %3, align 4, !tbaa !13
  %56 = or i32 %55, 4
  store i32 %56, ptr %3, align 4, !tbaa !13
  br label %57

57:                                               ; preds = %54, %46
  %58 = load i64, ptr %2, align 8, !tbaa !6
  %59 = call ptr @RSTRING_PTR(i64 noundef %58)
  %60 = load i64, ptr %4, align 8, !tbaa !6
  %61 = getelementptr inbounds i8, ptr %59, i64 %60
  %62 = load i8, ptr %61, align 1, !tbaa !19
  %63 = sext i8 %62 to i32
  %64 = icmp eq i32 %63, 46
  br i1 %64, label %65, label %68

65:                                               ; preds = %57
  %66 = load i32, ptr %3, align 4, !tbaa !13
  %67 = or i32 %66, 8
  store i32 %67, ptr %3, align 4, !tbaa !13
  br label %68

68:                                               ; preds = %65, %57
  %69 = load i64, ptr %2, align 8, !tbaa !6
  %70 = call ptr @RSTRING_PTR(i64 noundef %69)
  %71 = load i64, ptr %4, align 8, !tbaa !6
  %72 = getelementptr inbounds i8, ptr %70, i64 %71
  %73 = load i8, ptr %72, align 1, !tbaa !19
  %74 = sext i8 %73 to i32
  %75 = icmp eq i32 %74, 47
  br i1 %75, label %76, label %79

76:                                               ; preds = %68
  %77 = load i32, ptr %3, align 4, !tbaa !13
  %78 = or i32 %77, 16
  store i32 %78, ptr %3, align 4, !tbaa !13
  br label %79

79:                                               ; preds = %76, %68
  br label %80

80:                                               ; preds = %79
  %81 = load i64, ptr %4, align 8, !tbaa !6
  %82 = add nsw i64 %81, 1
  store i64 %82, ptr %4, align 8, !tbaa !6
  br label %5, !llvm.loop !36

83:                                               ; preds = %5
  %84 = load i32, ptr %3, align 4, !tbaa !13
  call void @llvm.lifetime.end.p0(i64 8, ptr %4) #21
  call void @llvm.lifetime.end.p0(i64 4, ptr %3) #21
  ret i32 %84
}