; Function Attrs: nofree nosync nounwind sspstrong memory(read, inaccessiblemem: none) uwtable
define internal fastcc range(i32 0, 32) i32 @check_class(i64 noundef %0) unnamed_addr #5 {
  %2 = inttoptr i64 %0 to ptr
  %3 = getelementptr inbounds nuw i8, ptr %2, i64 16
  %4 = load i64, ptr %3, align 8, !tbaa !10
  %5 = icmp sgt i64 %4, 0
  br i1 %5, label %.lr.ph, label %._crit_edge

.lr.ph:                                           ; preds = %1
  %6 = tail call ptr @__ctype_b_loc() #11
  %7 = load ptr, ptr %6, align 8, !tbaa !17
  %8 = load i64, ptr %2, align 8, !tbaa !13, !noalias !80
  %9 = and i64 %8, 8192
  %.not.i.i = icmp eq i64 %9, 0
  %10 = getelementptr inbounds nuw i8, ptr %2, i64 24
  br i1 %.not.i.i, label %RSTRING_PTR.exit32.thread.us, label %.lr.ph.split

RSTRING_PTR.exit32.thread.us:                     ; preds = %.lr.ph, %RSTRING_PTR.exit32.thread.us
  %.055.us = phi i64 [ %25, %RSTRING_PTR.exit32.thread.us ], [ 0, %.lr.ph ]
  %.01954.us = phi i32 [ %.5.us, %RSTRING_PTR.exit32.thread.us ], [ 0, %.lr.ph ]
  %11 = getelementptr inbounds nuw i8, ptr %10, i64 %.055.us
  %12 = load i8, ptr %11, align 1, !tbaa !20
  %13 = zext i8 %12 to i64
  %14 = getelementptr inbounds nuw i16, ptr %7, i64 %13
  %15 = load i16, ptr %14, align 2, !tbaa !21
  %16 = lshr i16 %15, 10
  %17 = and i16 %16, 3
  %18 = zext nneg i16 %17 to i32
  %.244.us = or i32 %.01954.us, %18
  %19 = icmp eq i8 %12, 45
  %20 = or i32 %.244.us, 4
  %.348.us = select i1 %19, i32 %20, i32 %.244.us
  %21 = icmp eq i8 %12, 46
  %22 = or i32 %.348.us, 8
  %.452.us = select i1 %21, i32 %22, i32 %.348.us
  %23 = icmp eq i8 %12, 47
  %24 = or i32 %.452.us, 16
  %.5.us = select i1 %23, i32 %24, i32 %.452.us
  %25 = add nuw nsw i64 %.055.us, 1
  %exitcond57.not = icmp eq i64 %25, %4
  br i1 %exitcond57.not, label %._crit_edge, label %RSTRING_PTR.exit32.thread.us, !llvm.loop !40

.lr.ph.split:                                     ; preds = %.lr.ph
  %.sroa.2.0.copyload.i = load ptr, ptr %10, align 8
  br label %RSTRING_PTR.exit36

RSTRING_PTR.exit36:                               ; preds = %.lr.ph.split, %RSTRING_PTR.exit36
  %.055 = phi i64 [ 0, %.lr.ph.split ], [ %40, %RSTRING_PTR.exit36 ]
  %.01954 = phi i32 [ 0, %.lr.ph.split ], [ %.5, %RSTRING_PTR.exit36 ]
  %26 = getelementptr inbounds nuw i8, ptr %.sroa.2.0.copyload.i, i64 %.055
  %27 = load i8, ptr %26, align 1, !tbaa !20
  %28 = zext i8 %27 to i64
  %29 = getelementptr inbounds nuw i16, ptr %7, i64 %28
  %30 = load i16, ptr %29, align 2, !tbaa !21
  %31 = lshr i16 %30, 10
  %32 = and i16 %31, 3
  %33 = zext nneg i16 %32 to i32
  %.2 = or i32 %.01954, %33
  %34 = icmp eq i8 %27, 45
  %35 = or i32 %.2, 4
  %.3 = select i1 %34, i32 %35, i32 %.2
  %36 = icmp eq i8 %27, 46
  %37 = or i32 %.3, 8
  %.4 = select i1 %36, i32 %37, i32 %.3
  %38 = icmp eq i8 %27, 47
  %39 = or i32 %.4, 16
  %.5 = select i1 %38, i32 %39, i32 %.4
  %40 = add nuw nsw i64 %.055, 1
  %exitcond.not = icmp eq i64 %40, %4
  br i1 %exitcond.not, label %._crit_edge, label %RSTRING_PTR.exit36, !llvm.loop !40

._crit_edge:                                      ; preds = %RSTRING_PTR.exit36, %RSTRING_PTR.exit32.thread.us, %1
  %.019.lcssa = phi i32 [ 0, %1 ], [ %.5.us, %RSTRING_PTR.exit32.thread.us ], [ %.5, %RSTRING_PTR.exit36 ]
  ret i32 %.019.lcssa
}